; Function Attrs: null_pointer_is_valid sspstrong uwtable
define internal i32 @frstrans_dissect_CheckConnectivity_request(ptr noundef %0, i32 noundef %1, ptr noundef %2, ptr noundef %3, ptr noundef initializes((72, 80)) %4, ptr noundef %5) #0 {
  %7 = getelementptr inbounds nuw i8, ptr %4, i64 72
  store ptr @.str.216, ptr %7, align 8
  %8 = load i32, ptr @hf_frstrans_frstrans_CheckConnectivity_replica_set_guid, align 4
  %9 = tail call i32 @dissect_ndr_uuid_t(ptr noundef %0, i32 noundef %1, ptr noundef %2, ptr noundef %3, ptr noundef %4, ptr noundef %5, i32 noundef %8, ptr noundef null)
  %10 = tail call i32 @dissect_deferred_pointers(ptr noundef %2, ptr noundef %0, i32 noundef %9, ptr noundef %4, ptr noundef %5)
  %11 = load i32, ptr @hf_frstrans_frstrans_CheckConnectivity_connection_guid, align 4
  %12 = tail call i32 @dissect_ndr_uuid_t(ptr noundef %0, i32 noundef %10, ptr noundef %2, ptr noundef %3, ptr noundef %4, ptr noundef %5, i32 noundef %11, ptr noundef null)
  %13 = tail call i32 @dissect_deferred_pointers(ptr noundef %2, ptr noundef %0, i32 noundef %12, ptr noundef %4, ptr noundef %5)
  ret i32 %13
}